; ModuleID = '44/861.c'
source_filename = "44/861.c"
target datalayout = "e-m:e-p270:32:32-p271:32:32-p272:64:64-i64:64-f80:128-n8:16:32:64-S128"
target triple = "x86_64-pc-linux-gnu"

@.str = private unnamed_addr constant [3 x i8] c"%d\00", align 1
@.str.1 = private unnamed_addr constant [4 x i8] c"\0A%d\00", align 1

; Function Attrs: noinline nounwind uwtable
define dso_local i32 @reverse(i32 %0) #0 {
  %2 = alloca i32, align 4
  %3 = alloca [10 x i32], align 16
  %4 = alloca i32, align 4
  %5 = alloca i32, align 4
  %6 = alloca i32, align 4
  %7 = alloca i32, align 4
  store i32 %0, i32* %2, align 4
  store i32 0, i32* %5, align 4
  store i32 0, i32* %6, align 4
  store i32 1, i32* %7, align 4
  %8 = load i32, i32* %2, align 4
  %9 = icmp sgt i32 %8, 0
  br i1 %9, label %10, label %51

10:                                               ; preds = %1
  store i32 1, i32* %4, align 4
  br label %11

11:                                               ; preds = %28, %10
  %12 = load i32, i32* %4, align 4
  %13 = icmp sle i32 %12, 9
  br i1 %13, label %14, label %31

14:                                               ; preds = %11
  %15 = load i32, i32* %6, align 4
  %16 = add nsw i32 %15, 1
  store i32 %16, i32* %6, align 4
  %17 = load i32, i32* %2, align 4
  %18 = srem i32 %17, 10
  %19 = load i32, i32* %4, align 4
  %20 = sext i32 %19 to i64
  %21 = getelementptr inbounds [10 x i32], [10 x i32]* %3, i64 0, i64 %20
  store i32 %18, i32* %21, align 4
  %22 = load i32, i32* %2, align 4
  %23 = sdiv i32 %22, 10
  store i32 %23, i32* %2, align 4
  %24 = load i32, i32* %2, align 4
  %25 = icmp eq i32 %24, 0
  br i1 %25, label %26, label %27

26:                                               ; preds = %14
  br label %31

27:                                               ; preds = %14
  br label %28

28:                                               ; preds = %27
  %29 = load i32, i32* %4, align 4
  %30 = add nsw i32 %29, 1
  store i32 %30, i32* %4, align 4
  br label %11

31:                                               ; preds = %26, %11
  %32 = load i32, i32* %6, align 4
  store i32 %32, i32* %4, align 4
  br label %33

33:                                               ; preds = %47, %31
  %34 = load i32, i32* %4, align 4
  %35 = icmp sge i32 %34, 1
  br i1 %35, label %36, label %50

36:                                               ; preds = %33
  %37 = load i32, i32* %5, align 4
  %38 = load i32, i32* %4, align 4
  %39 = sext i32 %38 to i64
  %40 = getelementptr inbounds [10 x i32], [10 x i32]* %3, i64 0, i64 %39
  %41 = load i32, i32* %40, align 4
  %42 = load i32, i32* %7, align 4
  %43 = mul nsw i32 %41, %42
  %44 = add nsw i32 %37, %43
  store i32 %44, i32* %5, align 4
  %45 = load i32, i32* %7, align 4
  %46 = mul nsw i32 %45, 10
  store i32 %46, i32* %7, align 4
  br label %47

47:                                               ; preds = %36
  %48 = load i32, i32* %4, align 4
  %49 = add nsw i32 %48, -1
  store i32 %49, i32* %4, align 4
  br label %33

50:                                               ; preds = %33
  br label %101

51:                                               ; preds = %1
  %52 = load i32, i32* %2, align 4
  %53 = icmp eq i32 %52, 0
  br i1 %53, label %54, label %55

54:                                               ; preds = %51
  store i32 0, i32* %5, align 4
  br label %100

55:                                               ; preds = %51
  %56 = load i32, i32* %2, align 4
  %57 = mul nsw i32 -1, %56
  store i32 %57, i32* %2, align 4
  store i32 1, i32* %4, align 4
  br label %58

58:                                               ; preds = %75, %55
  %59 = load i32, i32* %4, align 4
  %60 = icmp sle i32 %59, 9
  br i1 %60, label %61, label %78

61:                                               ; preds = %58
  %62 = load i32, i32* %6, align 4
  %63 = add nsw i32 %62, 1
  store i32 %63, i32* %6, align 4
  %64 = load i32, i32* %2, align 4
  %65 = srem i32 %64, 10
  %66 = load i32, i32* %4, align 4
  %67 = sext i32 %66 to i64
  %68 = getelementptr inbounds [10 x i32], [10 x i32]* %3, i64 0, i64 %67
  store i32 %65, i32* %68, align 4
  %69 = load i32, i32* %2, align 4
  %70 = sdiv i32 %69, 10
  store i32 %70, i32* %2, align 4
  %71 = load i32, i32* %2, align 4
  %72 = icmp eq i32 %71, 0
  br i1 %72, label %73, label %74

73:                                               ; preds = %61
  br label %78

74:                                               ; preds = %61
  br label %75

75:                                               ; preds = %74
  %76 = load i32, i32* %4, align 4
  %77 = add nsw i32 %76, 1
  store i32 %77, i32* %4, align 4
  br label %58

78:                                               ; preds = %73, %58
  %79 = load i32, i32* %6, align 4
  store i32 %79, i32* %4, align 4
  br label %80

80:                                               ; preds = %94, %78
  %81 = load i32, i32* %4, align 4
  %82 = icmp sge i32 %81, 1
  br i1 %82, label %83, label %97

83:                                               ; preds = %80
  %84 = load i32, i32* %5, align 4
  %85 = load i32, i32* %4, align 4
  %86 = sext i32 %85 to i64
  %87 = getelementptr inbounds [10 x i32], [10 x i32]* %3, i64 0, i64 %86
  %88 = load i32, i32* %87, align 4
  %89 = load i32, i32* %7, align 4
  %90 = mul nsw i32 %88, %89
  %91 = add nsw i32 %84, %90
  store i32 %91, i32* %5, align 4
  %92 = load i32, i32* %7, align 4
  %93 = mul nsw i32 %92, 10
  store i32 %93, i32* %7, align 4
  br label %94

94:                                               ; preds = %83
  %95 = load i32, i32* %4, align 4
  %96 = add nsw i32 %95, -1
  store i32 %96, i32* %4, align 4
  br label %80

97:                                               ; preds = %80
  %98 = load i32, i32* %5, align 4
  %99 = mul nsw i32 -1, %98
  store i32 %99, i32* %5, align 4
  br label %100

100:                                              ; preds = %97, %54
  br label %101

101:                                              ; preds = %100, %50
  %102 = load i32, i32* %5, align 4
  ret i32 %102
}

; Function Attrs: noinline nounwind uwtable
define dso_local i32 @main() #0 {
  %1 = alloca i32, align 4
  %2 = alloca [7 x i32], align 16
  %3 = alloca i32, align 4
  %4 = alloca i32, align 4
  store i32 0, i32* %1, align 4
  store i32 1, i32* %4, align 4
  br label %5

5:                                                ; preds = %13, %0
  %6 = load i32, i32* %4, align 4
  %7 = icmp sle i32 %6, 6
  br i1 %7, label %8, label %16

8:                                                ; preds = %5
  %9 = load i32, i32* %4, align 4
  %10 = sext i32 %9 to i64
  %11 = getelementptr inbounds [7 x i32], [7 x i32]* %2, i64 0, i64 %10
  %12 = call i32 (i8*, ...) @__isoc99_scanf(i8* getelementptr inbounds ([3 x i8], [3 x i8]* @.str, i64 0, i64 0), i32* %11)
  br label %13

13:                                               ; preds = %8
  %14 = load i32, i32* %4, align 4
  %15 = add nsw i32 %14, 1
  store i32 %15, i32* %4, align 4
  br label %5

16:                                               ; preds = %5
  %17 = getelementptr inbounds [7 x i32], [7 x i32]* %2, i64 0, i64 1
  %18 = load i32, i32* %17, align 4
  %19 = call i32 @reverse(i32 %18)
  %20 = call i32 (i8*, ...) @printf(i8* getelementptr inbounds ([3 x i8], [3 x i8]* @.str, i64 0, i64 0), i32 %19)
  store i32 2, i32* %4, align 4
  br label %21

21:                                               ; preds = %31, %16
  %22 = load i32, i32* %4, align 4
  %23 = icmp sle i32 %22, 6
  br i1 %23, label %24, label %34

24:                                               ; preds = %21
  %25 = load i32, i32* %4, align 4
  %26 = sext i32 %25 to i64
  %27 = getelementptr inbounds [7 x i32], [7 x i32]* %2, i64 0, i64 %26
  %28 = load i32, i32* %27, align 4
  %29 = call i32 @reverse(i32 %28)
  %30 = call i32 (i8*, ...) @printf(i8* getelementptr inbounds ([4 x i8], [4 x i8]* @.str.1, i64 0, i64 0), i32 %29)
  br label %31

31:                                               ; preds = %24
  %32 = load i32, i32* %4, align 4
  %33 = add nsw i32 %32, 1
  store i32 %33, i32* %4, align 4
  br label %21

34:                                               ; preds = %21
  ret i32 0
}

declare dso_local i32 @__isoc99_scanf(i8*, ...) #1

declare dso_local i32 @printf(i8*, ...) #1


!llvm.module.flags = !{!0}
!llvm.ident = !{!1}

!0 = !{i32 1, !"wchar_size", i32 4}
!1 = !{!"clang version 10.0.0-4ubuntu1 "}
